target datalayout = "e-m:e-p270:32:32-p271:32:32-p272:64:64-i64:64-i128:128-f80:128-n8:16:32:64-S128"
target triple = "x86_64-pc-linux-gnu"

%"struct.Minisat::Solver::WatcherDeleted" = type { ptr }
%"struct.Minisat::Solver::VarOrderLt" = type { ptr }
%"class.Minisat::Solver" = type <{ ptr, %"class.Minisat::vec", %"class.Minisat::LSet", i32, [4 x i8], double, double, double, double, i8, [3 x i8], i32, i32, i8, i8, [2 x i8], double, i32, i32, double, double, double, i32, [4 x i8], double, i64, i64, i64, i64, i64, i64, i64, i64, i64, i64, i64, i64, i64, %"class.Minisat::vec.2", %"class.Minisat::vec.2", %"class.Minisat::vec.1", %"class.Minisat::vec.3", %"class.Minisat::vec.1", %"class.Minisat::VMap", %"class.Minisat::VMap.7", %"class.Minisat::VMap.11", %"class.Minisat::VMap.7", %"class.Minisat::VMap.11", %"class.Minisat::VMap.15", %"class.Minisat::OccLists", %"class.Minisat::Heap", i8, [7 x i8], double, double, i32, i32, i64, double, i8, [3 x i8], i32, %"class.Minisat::ClauseAllocator", %"class.Minisat::vec.3", %"class.Minisat::vec.3", %"class.Minisat::VMap.11", %"class.Minisat::vec.25", %"class.Minisat::vec.1", %"class.Minisat::vec.1", double, double, i32, [4 x i8], i64, i64, i8, [7 x i8] }>
%"class.Minisat::vec" = type { ptr, i32, i32 }
%"class.Minisat::LSet" = type { %"class.Minisat::IntSet" }
%"class.Minisat::IntSet" = type { %"class.Minisat::IntMap", %"class.Minisat::vec.1" }
%"class.Minisat::IntMap" = type <{ %"class.Minisat::vec.0", %"struct.Minisat::MkIndexLit", [7 x i8] }>
%"class.Minisat::vec.0" = type { ptr, i32, i32 }
%"struct.Minisat::MkIndexLit" = type { i8 }
%"class.Minisat::vec.2" = type { ptr, i32, i32 }
%"class.Minisat::VMap" = type { %"class.Minisat::IntMap.base.6", [7 x i8] }
%"class.Minisat::IntMap.base.6" = type <{ %"class.Minisat::vec.5", %"struct.Minisat::MkIndexDefault" }>
%"class.Minisat::vec.5" = type { ptr, i32, i32 }
%"struct.Minisat::MkIndexDefault" = type { i8 }
%"class.Minisat::VMap.7" = type { %"class.Minisat::IntMap.base.9", [7 x i8] }
%"class.Minisat::IntMap.base.9" = type <{ %"class.Minisat::vec", %"struct.Minisat::MkIndexDefault" }>
%"class.Minisat::VMap.15" = type { %"class.Minisat::IntMap.base.18", [7 x i8] }
%"class.Minisat::IntMap.base.18" = type <{ %"class.Minisat::vec.17", %"struct.Minisat::MkIndexDefault" }>
%"class.Minisat::vec.17" = type { ptr, i32, i32 }
%"class.Minisat::OccLists" = type { %"class.Minisat::IntMap.20", %"class.Minisat::IntMap", %"class.Minisat::vec.1", %"struct.Minisat::Solver::WatcherDeleted" }
%"class.Minisat::IntMap.20" = type <{ %"class.Minisat::vec.21", %"struct.Minisat::MkIndexLit", [7 x i8] }>
%"class.Minisat::vec.21" = type { ptr, i32, i32 }
%"class.Minisat::Heap" = type { %"class.Minisat::vec.3", %"class.Minisat::IntMap.23", %"struct.Minisat::Solver::VarOrderLt" }
%"class.Minisat::IntMap.23" = type <{ %"class.Minisat::vec.3", %"struct.Minisat::MkIndexDefault", [7 x i8] }>
%"class.Minisat::ClauseAllocator" = type { %"class.Minisat::RegionAllocator", i8, [7 x i8] }
%"class.Minisat::RegionAllocator" = type <{ ptr, i32, i32, i32, [4 x i8] }>
%"class.Minisat::vec.3" = type { ptr, i32, i32 }
%"class.Minisat::VMap.11" = type { %"class.Minisat::IntMap.base.13", [7 x i8] }
%"class.Minisat::IntMap.base.13" = type <{ %"class.Minisat::vec.0", %"struct.Minisat::MkIndexDefault" }>
%"class.Minisat::vec.25" = type { ptr, i32, i32 }
%"class.Minisat::vec.1" = type { ptr, i32, i32 }

; Function Attrs: mustprogress nounwind uwtable
define linkonce_odr noundef i32 @_ZNK7Minisat3vecIiiE4sizeEv(ptr noundef nonnull align 8 dereferenceable(16) %0) #1 comdat align 2 {
  %2 = alloca ptr, align 8
  store ptr %0, ptr %2, align 8
  %3 = load ptr, ptr %2, align 8
  %4 = getelementptr inbounds %"class.Minisat::vec.3", ptr %3, i32 0, i32 1
  %5 = load i32, ptr %4, align 8
  ret i32 %5
}

; Function Attrs: mustprogress nounwind uwtable
define linkonce_odr noundef double @_ZSt3powIdiEN9__gnu_cxx11__promote_2IT_T0_NS0_9__promoteIS2_Xsr3std12__is_integerIS2_EE7__valueEE6__typeENS4_IS3_Xsr3std12__is_integerIS3_EE7__valueEE6__typeEE6__typeES2_S3_(double noundef %0, i32 noundef %1) #1 comdat {
  %3 = alloca double, align 8
  %4 = alloca i32, align 4
  store double %0, ptr %3, align 8
  store i32 %1, ptr %4, align 4
  %5 = load double, ptr %3, align 8
  %6 = load i32, ptr %4, align 4
  %7 = sitofp i32 %6 to double
  %8 = call double @pow(double noundef %5, double noundef %7) #3
  ret double %8
}

; Function Attrs: mustprogress nounwind uwtable
define linkonce_odr noundef i32 @_ZNK7Minisat3vecINS_3LitEiE4sizeEv(ptr noundef nonnull align 8 dereferenceable(16) %0) #1 comdat align 2 {
  %2 = alloca ptr, align 8
  store ptr %0, ptr %2, align 8
  %3 = load ptr, ptr %2, align 8
  %4 = getelementptr inbounds %"class.Minisat::vec.1", ptr %3, i32 0, i32 1
  %5 = load i32, ptr %4, align 8
  ret i32 %5
}

; Function Attrs: mustprogress nounwind uwtable
define linkonce_odr noundef nonnull align 4 dereferenceable(4) ptr @_ZNK7Minisat3vecIiiEixEi(ptr noundef nonnull align 8 dereferenceable(16) %0, i32 noundef %1) #1 comdat align 2 {
  %3 = alloca ptr, align 8
  %4 = alloca i32, align 4
  store ptr %0, ptr %3, align 8
  store i32 %1, ptr %4, align 4
  %5 = load ptr, ptr %3, align 8
  %6 = getelementptr inbounds %"class.Minisat::vec.3", ptr %5, i32 0, i32 0
  %7 = load ptr, ptr %6, align 8
  %8 = load i32, ptr %4, align 4
  %9 = sext i32 %8 to i64
  %10 = getelementptr inbounds i32, ptr %7, i64 %9
  ret ptr %10
}

; Function Attrs: mustprogress uwtable
define linkonce_odr noundef i32 @_ZNK7Minisat6Solver13decisionLevelEv(ptr noundef nonnull align 8 dereferenceable(857) %0) #2 comdat align 2 {
  %2 = alloca ptr, align 8
  store ptr %0, ptr %2, align 8
  %3 = load ptr, ptr %2, align 8
  %4 = getelementptr inbounds %"class.Minisat::Solver", ptr %3, i32 0, i32 41
  %5 = call noundef i32 @_ZNK7Minisat3vecIiiE4sizeEv(ptr noundef nonnull align 8 dereferenceable(16) %4)
  ret i32 %5
}

; Function Attrs: mustprogress nounwind uwtable
define linkonce_odr noundef i32 @_ZNK7Minisat6Solver5nVarsEv(ptr noundef nonnull align 8 dereferenceable(857) %0) #1 comdat align 2 {
  %2 = alloca ptr, align 8
  store ptr %0, ptr %2, align 8
  %3 = load ptr, ptr %2, align 8
  %4 = getelementptr inbounds %"class.Minisat::Solver", ptr %3, i32 0, i32 61
  %5 = load i32, ptr %4, align 4
  ret i32 %5
}

; Function Attrs: mustprogress uwtable
define noundef double @_ZNK7Minisat6Solver16progressEstimateEv(ptr noundef nonnull align 8 dereferenceable(857) %0) #2 align 2 {
  %2 = alloca ptr, align 8
  %3 = alloca double, align 8
  %4 = alloca double, align 8
  %5 = alloca i32, align 4
  %6 = alloca i32, align 4
  %7 = alloca i32, align 4
  store ptr %0, ptr %2, align 8
  %8 = load ptr, ptr %2, align 8
  store double 0.000000e+00, ptr %3, align 8
  %9 = call noundef i32 @_ZNK7Minisat6Solver5nVarsEv(ptr noundef nonnull align 8 dereferenceable(857) %8)
  %10 = sitofp i32 %9 to double
  %11 = fdiv double 1.000000e+00, %10
  store double %11, ptr %4, align 8
  store i32 0, ptr %5, align 4
  br label %12

12:                                               ; preds = %50, %1
  %13 = load i32, ptr %5, align 4
  %14 = call noundef i32 @_ZNK7Minisat6Solver13decisionLevelEv(ptr noundef nonnull align 8 dereferenceable(857) %8)
  %15 = icmp sle i32 %13, %14
  br i1 %15, label %16, label %53

16:                                               ; preds = %12
  %17 = load i32, ptr %5, align 4
  %18 = icmp eq i32 %17, 0
  br i1 %18, label %19, label %20

19:                                               ; preds = %16
  br label %26

20:                                               ; preds = %16
  %21 = getelementptr inbounds %"class.Minisat::Solver", ptr %8, i32 0, i32 41
  %22 = load i32, ptr %5, align 4
  %23 = sub nsw i32 %22, 1
  %24 = call noundef nonnull align 4 dereferenceable(4) ptr @_ZNK7Minisat3vecIiiEixEi(ptr noundef nonnull align 8 dereferenceable(16) %21, i32 noundef %23)
  %25 = load i32, ptr %24, align 4
  br label %26

26:                                               ; preds = %20, %19
  %27 = phi i32 [ 0, %19 ], [ %25, %20 ]
  store i32 %27, ptr %6, align 4
  %28 = load i32, ptr %5, align 4
  %29 = call noundef i32 @_ZNK7Minisat6Solver13decisionLevelEv(ptr noundef nonnull align 8 dereferenceable(857) %8)
  %30 = icmp eq i32 %28, %29
  br i1 %30, label %31, label %34

31:                                               ; preds = %26
  %32 = getelementptr inbounds %"class.Minisat::Solver", ptr %8, i32 0, i32 40
  %33 = call noundef i32 @_ZNK7Minisat3vecINS_3LitEiE4sizeEv(ptr noundef nonnull align 8 dereferenceable(16) %32)
  br label %39

34:                                               ; preds = %26
  %35 = getelementptr inbounds %"class.Minisat::Solver", ptr %8, i32 0, i32 41
  %36 = load i32, ptr %5, align 4
  %37 = call noundef nonnull align 4 dereferenceable(4) ptr @_ZNK7Minisat3vecIiiEixEi(ptr noundef nonnull align 8 dereferenceable(16) %35, i32 noundef %36)
  %38 = load i32, ptr %37, align 4
  br label %39

39:                                               ; preds = %34, %31
  %40 = phi i32 [ %33, %31 ], [ %38, %34 ]
  store i32 %40, ptr %7, align 4
  %41 = load double, ptr %4, align 8
  %42 = load i32, ptr %5, align 4
  %43 = call noundef double @_ZSt3powIdiEN9__gnu_cxx11__promote_2IT_T0_NS0_9__promoteIS2_Xsr3std12__is_integerIS2_EE7__valueEE6__typeENS4_IS3_Xsr3std12__is_integerIS3_EE7__valueEE6__typeEE6__typeES2_S3_(double noundef %41, i32 noundef %42)
  %44 = load i32, ptr %7, align 4
  %45 = load i32, ptr %6, align 4
  %46 = sub nsw i32 %44, %45
  %47 = sitofp i32 %46 to double
  %48 = load double, ptr %3, align 8
  %49 = call double @llvm.fmuladd.f64(double %43, double %47, double %48)
  store double %49, ptr %3, align 8
  br label %50

50:                                               ; preds = %39
  %51 = load i32, ptr %5, align 4
  %52 = add nsw i32 %51, 1
  store i32 %52, ptr %5, align 4
  br label %12, !llvm.loop !51

53:                                               ; preds = %12
  %54 = load double, ptr %3, align 8
  %55 = call noundef i32 @_ZNK7Minisat6Solver5nVarsEv(ptr noundef nonnull align 8 dereferenceable(857) %8)
  %56 = sitofp i32 %55 to double
  %57 = fdiv double %54, %56
  ret double %57
}