; Function Attrs: mustprogress nofree nounwind memory(readwrite, inaccessiblemem: write) uwtable
define noundef double @_ZNK7Minisat6Solver16progressEstimateEv(ptr nocapture noundef nonnull readonly align 8 dereferenceable(857) %0) local_unnamed_addr #8 align 2 {
  %2 = getelementptr inbounds i8, ptr %0, i64 676
  %3 = load i32, ptr %2, align 4
  %4 = sitofp i32 %3 to double
  %5 = fdiv double 1.000000e+00, %4
  %6 = getelementptr inbounds i8, ptr %0, i64 336
  %7 = load i32, ptr %6, align 8
  %.not13 = icmp slt i32 %7, 0
  br i1 %.not13, label %._crit_edge, label %.lr.ph

.lr.ph:                                           ; preds = %1
  %8 = getelementptr inbounds i8, ptr %0, i64 328
  %9 = getelementptr inbounds i8, ptr %0, i64 320
  br label %10

10:                                               ; preds = %.lr.ph, %17
  %indvars.iv = phi i64 [ 0, %.lr.ph ], [ %indvars.iv.next, %17 ]
  %11 = phi i32 [ %7, %.lr.ph ], [ %29, %17 ]
  %.015 = phi double [ 0.000000e+00, %.lr.ph ], [ %28, %17 ]
  %12 = icmp eq i64 %indvars.iv, 0
  %.pre = load ptr, ptr %8, align 8
  br i1 %12, label %17, label %13

13:                                               ; preds = %10
  %14 = getelementptr i32, ptr %.pre, i64 %indvars.iv
  %15 = getelementptr i8, ptr %14, i64 -4
  %16 = load i32, ptr %15, align 4
  br label %17

17:                                               ; preds = %10, %13
  %18 = phi i32 [ %16, %13 ], [ 0, %10 ]
  %19 = zext i32 %11 to i64
  %20 = icmp eq i64 %indvars.iv, %19
  %21 = getelementptr inbounds i32, ptr %.pre, i64 %indvars.iv
  %.in = select i1 %20, ptr %9, ptr %21
  %22 = load i32, ptr %.in, align 4
  %23 = trunc i64 %indvars.iv to i32
  %24 = sitofp i32 %23 to double
  %25 = tail call noundef double @pow(double noundef %5, double noundef %24) #25
  %26 = sub nsw i32 %22, %18
  %27 = sitofp i32 %26 to double
  %28 = tail call double @llvm.fmuladd.f64(double %25, double %27, double %.015)
  %indvars.iv.next = add nuw nsw i64 %indvars.iv, 1
  %29 = load i32, ptr %6, align 8
  %30 = sext i32 %29 to i64
  %.not.not = icmp slt i64 %indvars.iv, %30
  br i1 %.not.not, label %10, label %._crit_edge.loopexit, !llvm.loop !50

._crit_edge.loopexit:                             ; preds = %17
  %.pre17 = load i32, ptr %2, align 4
  %.pre18 = sitofp i32 %.pre17 to double
  br label %._crit_edge

._crit_edge:                                      ; preds = %._crit_edge.loopexit, %1
  %.pre-phi = phi double [ %.pre18, %._crit_edge.loopexit ], [ %4, %1 ]
  %.0.lcssa = phi double [ %28, %._crit_edge.loopexit ], [ 0.000000e+00, %1 ]
  %31 = fdiv double %.0.lcssa, %.pre-phi
  ret double %31
}